target datalayout = "e-m:e-p270:32:32-p271:32:32-p272:64:64-i64:64-i128:128-f80:128-n8:16:32:64-S128"
target triple = "x86_64-pc-linux-gnu"

%struct.slurmdb_used_limits_t = type { i32, ptr, i32, i32, ptr, ptr, ptr, ptr, i32 }

@slurmctld_tres_cnt = external global i32, align 4
@.str.2 = private unnamed_addr constant [14 x i8] c"acct_policy.c\00", align 1
@__func__.acct_policy_get_user_used_limits = private unnamed_addr constant [33 x i8] c"acct_policy_get_user_used_limits\00", align 1

; Function Attrs: nounwind uwtable
define dso_local ptr @acct_policy_get_user_used_limits(ptr noundef %0, i32 noundef %1) #0 {
  %3 = alloca ptr, align 8
  %4 = alloca i32, align 4
  %5 = alloca ptr, align 8
  %6 = alloca i32, align 4
  store ptr %0, ptr %3, align 8
  store i32 %1, ptr %4, align 4
  call void @llvm.lifetime.start.p0(i64 8, ptr %5) #8
  %7 = load ptr, ptr %3, align 8
  %8 = load ptr, ptr %7, align 8
  %9 = icmp ne ptr %8, null
  br i1 %9, label %13, label %10

10:                                               ; preds = %2
  %11 = call ptr @list_create(ptr noundef @slurmdb_destroy_used_limits)
  %12 = load ptr, ptr %3, align 8
  store ptr %11, ptr %12, align 8
  br label %13

13:                                               ; preds = %10, %2
  %14 = load ptr, ptr %3, align 8
  %15 = load ptr, ptr %14, align 8
  %16 = call ptr @list_find_first(ptr noundef %15, ptr noundef @_find_used_limits_for_user, ptr noundef %4)
  store ptr %16, ptr %5, align 8
  %17 = icmp ne ptr %16, null
  br i1 %17, label %40, label %18

18:                                               ; preds = %13
  call void @llvm.lifetime.start.p0(i64 4, ptr %6) #8
  %19 = load i32, ptr @slurmctld_tres_cnt, align 4
  %20 = sext i32 %19 to i64
  %21 = mul i64 8, %20
  %22 = trunc i64 %21 to i32
  store i32 %22, ptr %6, align 4
  %23 = call ptr @slurm_xcalloc(i64 noundef 1, i64 noundef 64, i1 noundef zeroext true, i1 noundef zeroext false, ptr noundef @.str.2, i32 noundef 5321, ptr noundef @__func__.acct_policy_get_user_used_limits)
  store ptr %23, ptr %5, align 8
  %24 = load i32, ptr %4, align 4
  %25 = load ptr, ptr %5, align 8
  %26 = getelementptr inbounds nuw %struct.slurmdb_used_limits_t, ptr %25, i32 0, i32 8
  store i32 %24, ptr %26, align 8
  %27 = load i32, ptr %6, align 4
  %28 = sext i32 %27 to i64
  %29 = call ptr @slurm_xcalloc(i64 noundef 1, i64 noundef %28, i1 noundef zeroext true, i1 noundef zeroext false, ptr noundef @.str.2, i32 noundef 5324, ptr noundef @__func__.acct_policy_get_user_used_limits)
  %30 = load ptr, ptr %5, align 8
  %31 = getelementptr inbounds nuw %struct.slurmdb_used_limits_t, ptr %30, i32 0, i32 4
  store ptr %29, ptr %31, align 8
  %32 = load i32, ptr %6, align 4
  %33 = sext i32 %32 to i64
  %34 = call ptr @slurm_xcalloc(i64 noundef 1, i64 noundef %33, i1 noundef zeroext true, i1 noundef zeroext false, ptr noundef @.str.2, i32 noundef 5325, ptr noundef @__func__.acct_policy_get_user_used_limits)
  %35 = load ptr, ptr %5, align 8
  %36 = getelementptr inbounds nuw %struct.slurmdb_used_limits_t, ptr %35, i32 0, i32 5
  store ptr %34, ptr %36, align 8
  %37 = load ptr, ptr %3, align 8
  %38 = load ptr, ptr %37, align 8
  %39 = load ptr, ptr %5, align 8
  call void @list_append(ptr noundef %38, ptr noundef %39)
  call void @llvm.lifetime.end.p0(i64 4, ptr %6) #8
  br label %40

40:                                               ; preds = %18, %13
  %41 = load ptr, ptr %5, align 8
  call void @llvm.lifetime.end.p0(i64 8, ptr %5) #8
  ret ptr %41
}