; Function Attrs: nounwind uwtable
define dso_local ptr @acct_policy_get_user_used_limits(ptr noundef captures(none) %0, i32 noundef %1) local_unnamed_addr #0 {
  %3 = alloca i32, align 4
  store i32 %1, ptr %3, align 4
  %4 = load ptr, ptr %0, align 8
  %.not = icmp eq ptr %4, null
  br i1 %.not, label %5, label %7

5:                                                ; preds = %2
  %6 = tail call ptr @list_create(ptr noundef nonnull @slurmdb_destroy_used_limits) #15
  store ptr %6, ptr %0, align 8
  br label %7

7:                                                ; preds = %5, %2
  %8 = phi ptr [ %6, %5 ], [ %4, %2 ]
  %9 = call ptr @list_find_first(ptr noundef %8, ptr noundef nonnull @_find_used_limits_for_user, ptr noundef nonnull %3) #15
  %.not11 = icmp eq ptr %9, null
  br i1 %.not11, label %10, label %22

10:                                               ; preds = %7
  %11 = load i32, ptr @slurmctld_tres_cnt, align 4
  %12 = shl i32 %11, 3
  %13 = call ptr @slurm_xcalloc(i64 noundef 1, i64 noundef 64, i1 noundef zeroext true, i1 noundef zeroext false, ptr noundef nonnull @.str.2, i32 noundef 5321, ptr noundef nonnull @__func__.acct_policy_get_user_used_limits) #15
  %14 = load i32, ptr %3, align 4
  %15 = getelementptr inbounds nuw i8, ptr %13, i64 56
  store i32 %14, ptr %15, align 8
  %16 = sext i32 %12 to i64
  %17 = call ptr @slurm_xcalloc(i64 noundef 1, i64 noundef %16, i1 noundef zeroext true, i1 noundef zeroext false, ptr noundef nonnull @.str.2, i32 noundef 5324, ptr noundef nonnull @__func__.acct_policy_get_user_used_limits) #15
  %18 = getelementptr inbounds nuw i8, ptr %13, i64 24
  store ptr %17, ptr %18, align 8
  %19 = call ptr @slurm_xcalloc(i64 noundef 1, i64 noundef %16, i1 noundef zeroext true, i1 noundef zeroext false, ptr noundef nonnull @.str.2, i32 noundef 5325, ptr noundef nonnull @__func__.acct_policy_get_user_used_limits) #15
  %20 = getelementptr inbounds nuw i8, ptr %13, i64 32
  store ptr %19, ptr %20, align 8
  %21 = load ptr, ptr %0, align 8
  call void @list_append(ptr noundef %21, ptr noundef %13) #15
  br label %22

22:                                               ; preds = %10, %7
  %.0 = phi ptr [ %9, %7 ], [ %13, %10 ]
  ret ptr %.0
}